target datalayout = "e-m:e-p270:32:32-p271:32:32-p272:64:64-i64:64-i128:128-f80:128-n8:16:32:64-S128"
target triple = "x86_64-unknown-linux-gnu"

%"class.OpenColorIO_v2_4dev::GammaBasicOpCPU" = type { %"class.OpenColorIO_v2_4dev::OpCPU", float, float, float, float }
%"class.OpenColorIO_v2_4dev::OpCPU" = type { ptr }

; Function Attrs: mustprogress nounwind uwtable
define linkonce_odr noundef float @_ZSt3powff(float noundef %__x, float noundef %__y) #5 comdat {
entry:
  %__x.addr = alloca float, align 4
  %__y.addr = alloca float, align 4
  store float %__x, ptr %__x.addr, align 4
  store float %__y, ptr %__y.addr, align 4
  %0 = load float, ptr %__x.addr, align 4
  %1 = load float, ptr %__y.addr, align 4
  %call = call float @powf(float noundef %0, float noundef %1) #3
  ret float %call
}

; Function Attrs: mustprogress uwtable
define hidden void @_ZNK19OpenColorIO_v2_4dev23GammaBasicPassThruOpCPU5applyEPKvPvl(ptr noundef nonnull align 8 dereferenceable(24) %this, ptr noundef %inImg, ptr noundef %outImg, i64 noundef %numPixels) unnamed_addr #6 align 2 {
entry:
  %this.addr = alloca ptr, align 8
  %inImg.addr = alloca ptr, align 8
  %outImg.addr = alloca ptr, align 8
  %numPixels.addr = alloca i64, align 8
  %in = alloca ptr, align 8
  %out = alloca ptr, align 8
  %idx = alloca i64, align 8
  %pixel = alloca [4 x float], align 16
  store ptr %this, ptr %this.addr, align 8
  store ptr %inImg, ptr %inImg.addr, align 8
  store ptr %outImg, ptr %outImg.addr, align 8
  store i64 %numPixels, ptr %numPixels.addr, align 8
  %this1 = load ptr, ptr %this.addr, align 8
  %0 = load ptr, ptr %inImg.addr, align 8
  store ptr %0, ptr %in, align 8
  %1 = load ptr, ptr %outImg.addr, align 8
  store ptr %1, ptr %out, align 8
  store i64 0, ptr %idx, align 8
  br label %for.cond

for.cond:                                         ; preds = %for.inc, %entry
  %2 = load i64, ptr %idx, align 8
  %3 = load i64, ptr %numPixels.addr, align 8
  %cmp = icmp slt i64 %2, %3
  br i1 %cmp, label %for.body, label %for.end

for.body:                                         ; preds = %for.cond
  %arrayinit.begin = getelementptr inbounds [4 x float], ptr %pixel, i64 0, i64 0
  %4 = load ptr, ptr %in, align 8
  %arrayidx = getelementptr inbounds float, ptr %4, i64 0
  %5 = load float, ptr %arrayidx, align 4
  store float %5, ptr %arrayinit.begin, align 4
  %arrayinit.element = getelementptr inbounds float, ptr %arrayinit.begin, i64 1
  %6 = load ptr, ptr %in, align 8
  %arrayidx2 = getelementptr inbounds float, ptr %6, i64 1
  %7 = load float, ptr %arrayidx2, align 4
  store float %7, ptr %arrayinit.element, align 4
  %arrayinit.element3 = getelementptr inbounds float, ptr %arrayinit.element, i64 1
  %8 = load ptr, ptr %in, align 8
  %arrayidx4 = getelementptr inbounds float, ptr %8, i64 2
  %9 = load float, ptr %arrayidx4, align 4
  store float %9, ptr %arrayinit.element3, align 4
  %arrayinit.element5 = getelementptr inbounds float, ptr %arrayinit.element3, i64 1
  %10 = load ptr, ptr %in, align 8
  %arrayidx6 = getelementptr inbounds float, ptr %10, i64 3
  %11 = load float, ptr %arrayidx6, align 4
  store float %11, ptr %arrayinit.element5, align 4
  %arrayidx7 = getelementptr inbounds [4 x float], ptr %pixel, i64 0, i64 0
  %12 = load float, ptr %arrayidx7, align 16
  %cmp8 = fcmp ogt float %12, 0.000000e+00
  br i1 %cmp8, label %cond.true, label %cond.false

cond.true:                                        ; preds = %for.body
  %arrayidx9 = getelementptr inbounds [4 x float], ptr %pixel, i64 0, i64 0
  %13 = load float, ptr %arrayidx9, align 16
  %m_redGamma = getelementptr inbounds %"class.OpenColorIO_v2_4dev::GammaBasicOpCPU", ptr %this1, i32 0, i32 1
  %14 = load float, ptr %m_redGamma, align 8
  %call = call noundef float @_ZSt3powff(float noundef %13, float noundef %14)
  br label %cond.end

cond.false:                                       ; preds = %for.body
  %arrayidx10 = getelementptr inbounds [4 x float], ptr %pixel, i64 0, i64 0
  %15 = load float, ptr %arrayidx10, align 16
  br label %cond.end

cond.end:                                         ; preds = %cond.false, %cond.true
  %cond = phi float [ %call, %cond.true ], [ %15, %cond.false ]
  %16 = load ptr, ptr %out, align 8
  %arrayidx11 = getelementptr inbounds float, ptr %16, i64 0
  store float %cond, ptr %arrayidx11, align 4
  %arrayidx12 = getelementptr inbounds [4 x float], ptr %pixel, i64 0, i64 1
  %17 = load float, ptr %arrayidx12, align 4
  %cmp13 = fcmp ogt float %17, 0.000000e+00
  br i1 %cmp13, label %cond.true14, label %cond.false17

cond.true14:                                      ; preds = %cond.end
  %arrayidx15 = getelementptr inbounds [4 x float], ptr %pixel, i64 0, i64 1
  %18 = load float, ptr %arrayidx15, align 4
  %m_grnGamma = getelementptr inbounds %"class.OpenColorIO_v2_4dev::GammaBasicOpCPU", ptr %this1, i32 0, i32 2
  %19 = load float, ptr %m_grnGamma, align 4
  %call16 = call noundef float @_ZSt3powff(float noundef %18, float noundef %19)
  br label %cond.end19

cond.false17:                                     ; preds = %cond.end
  %arrayidx18 = getelementptr inbounds [4 x float], ptr %pixel, i64 0, i64 1
  %20 = load float, ptr %arrayidx18, align 4
  br label %cond.end19

cond.end19:                                       ; preds = %cond.false17, %cond.true14
  %cond20 = phi float [ %call16, %cond.true14 ], [ %20, %cond.false17 ]
  %21 = load ptr, ptr %out, align 8
  %arrayidx21 = getelementptr inbounds float, ptr %21, i64 1
  store float %cond20, ptr %arrayidx21, align 4
  %arrayidx22 = getelementptr inbounds [4 x float], ptr %pixel, i64 0, i64 2
  %22 = load float, ptr %arrayidx22, align 8
  %cmp23 = fcmp ogt float %22, 0.000000e+00
  br i1 %cmp23, label %cond.true24, label %cond.false27

cond.true24:                                      ; preds = %cond.end19
  %arrayidx25 = getelementptr inbounds [4 x float], ptr %pixel, i64 0, i64 2
  %23 = load float, ptr %arrayidx25, align 8
  %m_bluGamma = getelementptr inbounds %"class.OpenColorIO_v2_4dev::GammaBasicOpCPU", ptr %this1, i32 0, i32 3
  %24 = load float, ptr %m_bluGamma, align 8
  %call26 = call noundef float @_ZSt3powff(float noundef %23, float noundef %24)
  br label %cond.end29

cond.false27:                                     ; preds = %cond.end19
  %arrayidx28 = getelementptr inbounds [4 x float], ptr %pixel, i64 0, i64 2
  %25 = load float, ptr %arrayidx28, align 8
  br label %cond.end29

cond.end29:                                       ; preds = %cond.false27, %cond.true24
  %cond30 = phi float [ %call26, %cond.true24 ], [ %25, %cond.false27 ]
  %26 = load ptr, ptr %out, align 8
  %arrayidx31 = getelementptr inbounds float, ptr %26, i64 2
  store float %cond30, ptr %arrayidx31, align 4
  %arrayidx32 = getelementptr inbounds [4 x float], ptr %pixel, i64 0, i64 3
  %27 = load float, ptr %arrayidx32, align 4
  %cmp33 = fcmp ogt float %27, 0.000000e+00
  br i1 %cmp33, label %cond.true34, label %cond.false37

cond.true34:                                      ; preds = %cond.end29
  %arrayidx35 = getelementptr inbounds [4 x float], ptr %pixel, i64 0, i64 3
  %28 = load float, ptr %arrayidx35, align 4
  %m_alpGamma = getelementptr inbounds %"class.OpenColorIO_v2_4dev::GammaBasicOpCPU", ptr %this1, i32 0, i32 4
  %29 = load float, ptr %m_alpGamma, align 4
  %call36 = call noundef float @_ZSt3powff(float noundef %28, float noundef %29)
  br label %cond.end39

cond.false37:                                     ; preds = %cond.end29
  %arrayidx38 = getelementptr inbounds [4 x float], ptr %pixel, i64 0, i64 3
  %30 = load float, ptr %arrayidx38, align 4
  br label %cond.end39

cond.end39:                                       ; preds = %cond.false37, %cond.true34
  %cond40 = phi float [ %call36, %cond.true34 ], [ %30, %cond.false37 ]
  %31 = load ptr, ptr %out, align 8
  %arrayidx41 = getelementptr inbounds float, ptr %31, i64 3
  store float %cond40, ptr %arrayidx41, align 4
  %32 = load ptr, ptr %in, align 8
  %add.ptr = getelementptr inbounds float, ptr %32, i64 4
  store ptr %add.ptr, ptr %in, align 8
  %33 = load ptr, ptr %out, align 8
  %add.ptr42 = getelementptr inbounds float, ptr %33, i64 4
  store ptr %add.ptr42, ptr %out, align 8
  br label %for.inc

for.inc:                                          ; preds = %cond.end39
  %34 = load i64, ptr %idx, align 8
  %inc = add nsw i64 %34, 1
  store i64 %inc, ptr %idx, align 8
  br label %for.cond, !llvm.loop !10

for.end:                                          ; preds = %for.cond
  ret void
}