; Function Attrs: mustprogress nofree nounwind memory(readwrite, inaccessiblemem: write) uwtable
define hidden void @_ZNK19OpenColorIO_v2_4dev23GammaBasicPassThruOpCPU5applyEPKvPvl(ptr nocapture noundef nonnull readonly align 8 dereferenceable(24) %this, ptr nocapture noundef readonly %inImg, ptr nocapture noundef writeonly %outImg, i64 noundef %numPixels) unnamed_addr #7 align 2 {
entry:
  %cmp27 = icmp sgt i64 %numPixels, 0
  br i1 %cmp27, label %for.body.lr.ph, label %for.end

for.body.lr.ph:                                   ; preds = %entry
  %m_redGamma = getelementptr inbounds i8, ptr %this, i64 8
  %m_grnGamma = getelementptr inbounds i8, ptr %this, i64 12
  %m_bluGamma = getelementptr inbounds i8, ptr %this, i64 16
  %m_alpGamma = getelementptr inbounds i8, ptr %this, i64 20
  br label %for.body

for.body:                                         ; preds = %for.body.lr.ph, %cond.end39
  %in.030 = phi ptr [ %inImg, %for.body.lr.ph ], [ %add.ptr, %cond.end39 ]
  %out.029 = phi ptr [ %outImg, %for.body.lr.ph ], [ %add.ptr42, %cond.end39 ]
  %idx.028 = phi i64 [ 0, %for.body.lr.ph ], [ %inc, %cond.end39 ]
  %0 = load float, ptr %in.030, align 4
  %arrayidx2 = getelementptr inbounds i8, ptr %in.030, i64 4
  %1 = load float, ptr %arrayidx2, align 4
  %arrayidx4 = getelementptr inbounds i8, ptr %in.030, i64 8
  %2 = load float, ptr %arrayidx4, align 4
  %arrayidx6 = getelementptr inbounds i8, ptr %in.030, i64 12
  %3 = load float, ptr %arrayidx6, align 4
  %cmp8 = fcmp ogt float %0, 0.000000e+00
  br i1 %cmp8, label %cond.true, label %cond.end

cond.true:                                        ; preds = %for.body
  %4 = load float, ptr %m_redGamma, align 8
  %call.i = tail call noundef float @powf(float noundef %0, float noundef %4) #19
  br label %cond.end

cond.end:                                         ; preds = %for.body, %cond.true
  %cond = phi float [ %call.i, %cond.true ], [ %0, %for.body ]
  store float %cond, ptr %out.029, align 4
  %cmp13 = fcmp ogt float %1, 0.000000e+00
  br i1 %cmp13, label %cond.true14, label %cond.end19

cond.true14:                                      ; preds = %cond.end
  %5 = load float, ptr %m_grnGamma, align 4
  %call.i24 = tail call noundef float @powf(float noundef %1, float noundef %5) #19
  br label %cond.end19

cond.end19:                                       ; preds = %cond.end, %cond.true14
  %cond20 = phi float [ %call.i24, %cond.true14 ], [ %1, %cond.end ]
  %arrayidx21 = getelementptr inbounds i8, ptr %out.029, i64 4
  store float %cond20, ptr %arrayidx21, align 4
  %cmp23 = fcmp ogt float %2, 0.000000e+00
  br i1 %cmp23, label %cond.true24, label %cond.end29

cond.true24:                                      ; preds = %cond.end19
  %6 = load float, ptr %m_bluGamma, align 8
  %call.i25 = tail call noundef float @powf(float noundef %2, float noundef %6) #19
  br label %cond.end29

cond.end29:                                       ; preds = %cond.end19, %cond.true24
  %cond30 = phi float [ %call.i25, %cond.true24 ], [ %2, %cond.end19 ]
  %arrayidx31 = getelementptr inbounds i8, ptr %out.029, i64 8
  store float %cond30, ptr %arrayidx31, align 4
  %cmp33 = fcmp ogt float %3, 0.000000e+00
  br i1 %cmp33, label %cond.true34, label %cond.end39

cond.true34:                                      ; preds = %cond.end29
  %7 = load float, ptr %m_alpGamma, align 4
  %call.i26 = tail call noundef float @powf(float noundef %3, float noundef %7) #19
  br label %cond.end39

cond.end39:                                       ; preds = %cond.end29, %cond.true34
  %cond40 = phi float [ %call.i26, %cond.true34 ], [ %3, %cond.end29 ]
  %arrayidx41 = getelementptr inbounds i8, ptr %out.029, i64 12
  store float %cond40, ptr %arrayidx41, align 4
  %add.ptr = getelementptr inbounds i8, ptr %in.030, i64 16
  %add.ptr42 = getelementptr inbounds i8, ptr %out.029, i64 16
  %inc = add nuw nsw i64 %idx.028, 1
  %exitcond.not = icmp eq i64 %inc, %numPixels
  br i1 %exitcond.not, label %for.end, label %for.body, !llvm.loop !53

for.end:                                          ; preds = %cond.end39, %entry
  ret void
}